; Function Attrs: mustprogress nofree norecurse nosync nounwind willreturn memory(argmem: readwrite) uwtable
define internal noundef zeroext i1 @"_ZNSt17_Function_handlerIFvRKNSt7__cxx1112basic_stringIcSt11char_traitsIcESaIcEEERKSt10shared_ptrIN4Luau5ScopeEEEZNS9_8Frontend5checkERKNS9_12SourceModuleENS9_4ModeESt6vectorINS9_12RequireCycleESaISL_EESt8optionalISB_EbbNS9_15TypeCheckLimitsEE3$_1E10_M_managerERSt9_Any_dataRKST_St18_Manager_operation"(ptr noundef nonnull writeonly align 8 captures(none) dereferenceable(16) %0, ptr noundef nonnull align 8 dereferenceable(16) %1, i32 noundef %2) #22 align 2 personality ptr @__gxx_personality_v0 {
  switch i32 %2, label %"_ZNSt14_Function_base13_Base_managerIZN4Luau8Frontend5checkERKNS1_12SourceModuleENS1_4ModeESt6vectorINS1_12RequireCycleESaIS8_EESt8optionalISt10shared_ptrINS1_5ScopeEEEbbNS1_15TypeCheckLimitsEE3$_1E10_M_managerERSt9_Any_dataRKSJ_St18_Manager_operation.exit" [
    i32 0, label %4
    i32 1, label %5
    i32 2, label %6
  ]

4:                                                ; preds = %3
  store ptr @"_ZTIZN4Luau8Frontend5checkERKNS_12SourceModuleENS_4ModeESt6vectorINS_12RequireCycleESaIS6_EESt8optionalISt10shared_ptrINS_5ScopeEEEbbNS_15TypeCheckLimitsEE3$_1", ptr %0, align 8, !tbaa !1233
  br label %"_ZNSt14_Function_base13_Base_managerIZN4Luau8Frontend5checkERKNS1_12SourceModuleENS1_4ModeESt6vectorINS1_12RequireCycleESaIS8_EESt8optionalISt10shared_ptrINS1_5ScopeEEEbbNS1_15TypeCheckLimitsEE3$_1E10_M_managerERSt9_Any_dataRKSJ_St18_Manager_operation.exit"

5:                                                ; preds = %3
  store ptr %1, ptr %0, align 8, !tbaa !15
  br label %"_ZNSt14_Function_base13_Base_managerIZN4Luau8Frontend5checkERKNS1_12SourceModuleENS1_4ModeESt6vectorINS1_12RequireCycleESaIS8_EESt8optionalISt10shared_ptrINS1_5ScopeEEEbbNS1_15TypeCheckLimitsEE3$_1E10_M_managerERSt9_Any_dataRKSJ_St18_Manager_operation.exit"

6:                                                ; preds = %3
  tail call void @llvm.memcpy.p0.p0.i64(ptr noundef nonnull align 8 dereferenceable(16) %0, ptr noundef nonnull readonly align 8 dereferenceable(16) %1, i64 16, i1 false), !tbaa.struct !1638
  br label %"_ZNSt14_Function_base13_Base_managerIZN4Luau8Frontend5checkERKNS1_12SourceModuleENS1_4ModeESt6vectorINS1_12RequireCycleESaIS8_EESt8optionalISt10shared_ptrINS1_5ScopeEEEbbNS1_15TypeCheckLimitsEE3$_1E10_M_managerERSt9_Any_dataRKSJ_St18_Manager_operation.exit"

"_ZNSt14_Function_base13_Base_managerIZN4Luau8Frontend5checkERKNS1_12SourceModuleENS1_4ModeESt6vectorINS1_12RequireCycleESaIS8_EESt8optionalISt10shared_ptrINS1_5ScopeEEEbbNS1_15TypeCheckLimitsEE3$_1E10_M_managerERSt9_Any_dataRKSJ_St18_Manager_operation.exit": ; preds = %3, %6, %5, %4
  ret i1 false
}